target datalayout = "e-m:e-p270:32:32-p271:32:32-p272:64:64-i64:64-i128:128-f80:128-n8:16:32:64-S128"
target triple = "x86_64-pc-linux-gnu"

%struct.rb_data_type_struct = type { ptr, %struct.anon.24, ptr, ptr, i64 }
%struct.anon.24 = type { ptr, ptr, ptr, ptr, [1 x ptr] }
%struct.RClass_and_rb_classext_t = type { %struct.RClass, %struct.rb_classext_struct }
%struct.RClass = type { %struct.RBasic, i64, ptr }
%struct.RBasic = type { i64, i64 }
%struct.rb_classext_struct = type { ptr, ptr, ptr, ptr, ptr, i64, ptr, ptr, ptr, ptr, i64, i64, %union.anon, i64, i32, i8, i8, i64 }
%union.anon = type { %struct.anon }
%struct.anon = type { ptr }
%struct.rb_const_entry_struct = type { i32, i32, i64, i64 }
%struct.autoload_const = type { %struct.ccan_list_node, i64, i64, i64, i64, i32, i64, i32 }
%struct.ccan_list_node = type { ptr, ptr }
%struct.autoload_data = type { i64, i64, i64, %struct.ccan_list_head }
%struct.ccan_list_head = type { %struct.ccan_list_node }
%struct.autoload_load_arguments = type { i64, i64, i32, i64, ptr, ptr }

@autoload_mutex = internal global i64 0, align 8
@rb_cObject = external global i64, align 8
@.str.16 = private unnamed_addr constant [14 x i8] c"../variable.c\00", align 1
@ruby_single_main_ractor = external global ptr, align 8
@autoload_data_type = internal constant %struct.rb_data_type_struct { ptr @.str.49, %struct.anon.24 { ptr @autoload_data_mark, ptr @autoload_data_free, ptr @autoload_data_memsize, ptr @autoload_data_compact, [1 x ptr] zeroinitializer }, ptr null, ptr null, i64 33 }, align 8
@.str.54 = private unnamed_addr constant [43 x i8] c"Expected %li\0B to define %li\0B but it didn't\00", align 1
@.str.55 = private unnamed_addr constant [49 x i8] c"Expected %li\0B to define %li\0B::%li\0B but it didn't\00", align 1
@autoload_feature_require.rbimpl_id = internal global i64 0, align 8
@.str.56 = private unnamed_addr constant [8 x i8] c"require\00", align 1

; Function Attrs: inlinehint nounwind sspstrong uwtable
define internal zeroext i1 @rb_multi_ractor_p() #6 {
  %1 = alloca i1, align 1
  %2 = load ptr, ptr @ruby_single_main_ractor, align 8, !tbaa !91
  %3 = icmp ne ptr %2, null
  %4 = xor i1 %3, true
  %5 = xor i1 %4, true
  %6 = zext i1 %5 to i32
  %7 = sext i32 %6 to i64
  %8 = call i64 @llvm.expect.i64(i64 %7, i64 1)
  %9 = icmp ne i64 %8, 0
  br i1 %9, label %10, label %11

10:                                               ; preds = %0
  store i1 false, ptr %1, align 1
  br label %12

11:                                               ; preds = %0
  store i1 true, ptr %1, align 1
  br label %12

12:                                               ; preds = %11, %10
  %13 = load i1, ptr %1, align 1
  ret i1 %13
}

; Function Attrs: inlinehint nounwind sspstrong willreturn memory(read) uwtable
define internal i64 @rb_intern_const(ptr noundef nonnull %0) #2 {
  %2 = alloca ptr, align 8
  %3 = alloca i64, align 8
  store ptr %0, ptr %2, align 8, !tbaa !16
  call void @llvm.lifetime.start.p0(i64 8, ptr %3) #30
  %4 = load ptr, ptr %2, align 8, !tbaa !16
  %5 = call i64 @strlen(ptr noundef %4) #29
  store i64 %5, ptr %3, align 8, !tbaa !14
  %6 = load ptr, ptr %2, align 8, !tbaa !16
  %7 = load i64, ptr %3, align 8, !tbaa !14
  %8 = call i64 @rb_intern2(ptr noundef %6, i64 noundef %7)
  call void @llvm.lifetime.end.p0(i64 8, ptr %3) #30
  ret i64 %8
}

; Function Attrs: inlinehint nounwind sspstrong uwtable
define internal void @rb_vm_lock_leave(ptr noundef %0, ptr noundef %1, i32 noundef %2) #6 {
  %4 = alloca ptr, align 8
  %5 = alloca ptr, align 8
  %6 = alloca i32, align 4
  store ptr %0, ptr %4, align 8, !tbaa !98
  store ptr %1, ptr %5, align 8, !tbaa !16
  store i32 %2, ptr %6, align 4, !tbaa !51
  %7 = call zeroext i1 @rb_multi_ractor_p()
  br i1 %7, label %8, label %10

8:                                                ; preds = %3
  %9 = load ptr, ptr %4, align 8, !tbaa !98
  call void @rb_vm_lock_leave_body(ptr noundef %9)
  br label %10

10:                                               ; preds = %8, %3
  ret void
}

; Function Attrs: inlinehint nounwind sspstrong uwtable
define internal void @rb_vm_lock_enter(ptr noundef %0, ptr noundef %1, i32 noundef %2) #6 {
  %4 = alloca ptr, align 8
  %5 = alloca ptr, align 8
  %6 = alloca i32, align 4
  store ptr %0, ptr %4, align 8, !tbaa !98
  store ptr %1, ptr %5, align 8, !tbaa !16
  store i32 %2, ptr %6, align 4, !tbaa !51
  %7 = call zeroext i1 @rb_multi_ractor_p()
  br i1 %7, label %8, label %10

8:                                                ; preds = %3
  %9 = load ptr, ptr %4, align 8, !tbaa !98
  call void @rb_vm_lock_enter_body(ptr noundef %9)
  br label %10

10:                                               ; preds = %8, %3
  ret void
}

; Function Attrs: inlinehint nounwind sspstrong willreturn memory(none) uwtable
define internal zeroext i1 @RB_TEST(i64 noundef %0) #5 {
  %2 = alloca i64, align 8
  store i64 %0, ptr %2, align 8, !tbaa !14
  %3 = load i64, ptr %2, align 8, !tbaa !14
  %4 = and i64 %3, -5
  %5 = icmp ne i64 %4, 0
  ret i1 %5
}

; Function Attrs: inlinehint nounwind sspstrong memory(argmem: readwrite, inaccessiblemem: readwrite) uwtable
define internal i64 @rbimpl_intern_const(ptr noundef nonnull %0, ptr noundef nonnull %1) #8 {
  %3 = alloca ptr, align 8
  %4 = alloca ptr, align 8
  store ptr %0, ptr %3, align 8, !tbaa !49
  store ptr %1, ptr %4, align 8, !tbaa !16
  br label %5

5:                                                ; preds = %10, %2
  %6 = load ptr, ptr %3, align 8, !tbaa !49
  %7 = load i64, ptr %6, align 8, !tbaa !14
  %8 = icmp ne i64 %7, 0
  %9 = xor i1 %8, true
  br i1 %9, label %10, label %14

10:                                               ; preds = %5
  %11 = load ptr, ptr %4, align 8, !tbaa !16
  %12 = call i64 @rb_intern_const(ptr noundef %11) #29
  %13 = load ptr, ptr %3, align 8, !tbaa !49
  store i64 %12, ptr %13, align 8, !tbaa !14
  br label %5, !llvm.loop !61

14:                                               ; preds = %5
  %15 = load ptr, ptr %3, align 8, !tbaa !49
  %16 = load i64, ptr %15, align 8, !tbaa !14
  ret i64 %16
}

; Function Attrs: inlinehint nounwind sspstrong willreturn memory(none) uwtable
define internal zeroext i1 @RB_UNDEF_P(i64 noundef %0) #5 {
  %2 = alloca i64, align 8
  store i64 %0, ptr %2, align 8, !tbaa !14
  %3 = load i64, ptr %2, align 8, !tbaa !14
  %4 = icmp eq i64 %3, 36
  ret i1 %4
}

; Function Attrs: nounwind sspstrong uwtable
define hidden ptr @rb_const_lookup(i64 noundef %0, i64 noundef %1) #0 {
  %3 = alloca ptr, align 8
  %4 = alloca i64, align 8
  %5 = alloca i64, align 8
  %6 = alloca ptr, align 8
  %7 = alloca i64, align 8
  %8 = alloca i8, align 1
  %9 = alloca i32, align 4
  %10 = alloca i32, align 4
  store i64 %0, ptr %4, align 8, !tbaa !14
  store i64 %1, ptr %5, align 8, !tbaa !14
  call void @llvm.lifetime.start.p0(i64 8, ptr %6) #30
  %11 = load i64, ptr %4, align 8, !tbaa !14
  %12 = inttoptr i64 %11 to ptr
  %13 = getelementptr inbounds nuw %struct.RClass_and_rb_classext_t, ptr %12, i32 0, i32 1
  %14 = getelementptr inbounds nuw %struct.rb_classext_struct, ptr %13, i32 0, i32 1
  %15 = load ptr, ptr %14, align 8, !tbaa !163
  store ptr %15, ptr %6, align 8, !tbaa !7
  %16 = load ptr, ptr %6, align 8, !tbaa !7
  %17 = icmp ne ptr %16, null
  br i1 %17, label %18, label %33

18:                                               ; preds = %2
  call void @llvm.lifetime.start.p0(i64 8, ptr %7) #30
  call void @llvm.lifetime.start.p0(i64 1, ptr %8) #30
  call void @llvm.lifetime.start.p0(i64 4, ptr %9) #30
  call void @rb_vm_lock_enter(ptr noundef %9, ptr noundef @.str.16, i32 noundef 4286)
  %19 = load ptr, ptr %6, align 8, !tbaa !7
  %20 = load i64, ptr %5, align 8, !tbaa !14
  %21 = call i32 @rb_id_table_lookup(ptr noundef %19, i64 noundef %20, ptr noundef %7)
  %22 = icmp ne i32 %21, 0
  %23 = zext i1 %22 to i8
  store i8 %23, ptr %8, align 1, !tbaa !20
  call void @rb_vm_lock_leave(ptr noundef %9, ptr noundef @.str.16, i32 noundef 4290)
  call void @llvm.lifetime.end.p0(i64 4, ptr %9) #30
  %24 = load i8, ptr %8, align 1, !tbaa !20, !range !30, !noundef !31
  %25 = trunc i8 %24 to i1
  br i1 %25, label %26, label %29

26:                                               ; preds = %18
  %27 = load i64, ptr %7, align 8, !tbaa !14
  %28 = inttoptr i64 %27 to ptr
  store ptr %28, ptr %3, align 8
  store i32 1, ptr %10, align 4
  br label %30

29:                                               ; preds = %18
  store i32 0, ptr %10, align 4
  br label %30

30:                                               ; preds = %29, %26
  call void @llvm.lifetime.end.p0(i64 1, ptr %8) #30
  call void @llvm.lifetime.end.p0(i64 8, ptr %7) #30
  %31 = load i32, ptr %10, align 4
  switch i32 %31, label %34 [
    i32 0, label %32
  ]

32:                                               ; preds = %30
  br label %33

33:                                               ; preds = %32, %2
  store ptr null, ptr %3, align 8
  store i32 1, ptr %10, align 4
  br label %34

34:                                               ; preds = %33, %30
  call void @llvm.lifetime.end.p0(i64 8, ptr %6) #30
  %35 = load ptr, ptr %3, align 8
  ret ptr %35
}

; Function Attrs: nounwind sspstrong uwtable
define internal i64 @autoload_feature_require(i64 noundef %0) #0 {
  %2 = alloca i64, align 8
  %3 = alloca i64, align 8
  %4 = alloca ptr, align 8
  %5 = alloca ptr, align 8
  %6 = alloca i64, align 8
  %7 = alloca i64, align 8
  %8 = alloca i32, align 4
  store i64 %0, ptr %3, align 8, !tbaa !14
  call void @llvm.lifetime.start.p0(i64 8, ptr %4) #30
  %9 = load i64, ptr %3, align 8, !tbaa !14
  %10 = inttoptr i64 %9 to ptr
  store ptr %10, ptr %4, align 8, !tbaa !164
  call void @llvm.lifetime.start.p0(i64 8, ptr %5) #30
  %11 = load ptr, ptr %4, align 8, !tbaa !164
  %12 = getelementptr inbounds nuw %struct.autoload_load_arguments, ptr %11, i32 0, i32 4
  %13 = load ptr, ptr %12, align 8, !tbaa !159
  store ptr %13, ptr %5, align 8, !tbaa !142
  %14 = load ptr, ptr %5, align 8, !tbaa !142
  %15 = getelementptr inbounds nuw %struct.autoload_const, ptr %14, i32 0, i32 1
  %16 = load i64, ptr %15, align 8, !tbaa !151
  %17 = call ptr @rb_check_typeddata(i64 noundef %16, ptr noundef @autoload_data_type)
  %18 = load ptr, ptr %4, align 8, !tbaa !164
  %19 = getelementptr inbounds nuw %struct.autoload_load_arguments, ptr %18, i32 0, i32 5
  store ptr %17, ptr %19, align 8, !tbaa !160
  call void @llvm.lifetime.start.p0(i64 8, ptr %6) #30
  %20 = call i64 @rb_vm_top_self() #29
  %21 = call i64 @rbimpl_intern_const(ptr noundef @autoload_feature_require.rbimpl_id, ptr noundef @.str.56) #34
  store i64 %21, ptr %7, align 8, !tbaa !14
  %22 = load i64, ptr %7, align 8, !tbaa !14
  %23 = load ptr, ptr %4, align 8, !tbaa !164
  %24 = getelementptr inbounds nuw %struct.autoload_load_arguments, ptr %23, i32 0, i32 5
  %25 = load ptr, ptr %24, align 8, !tbaa !160
  %26 = getelementptr inbounds nuw %struct.autoload_data, ptr %25, i32 0, i32 0
  %27 = load i64, ptr %26, align 8, !tbaa !185
  %28 = call i64 (i64, i64, i32, ...) @rb_funcall(i64 noundef %20, i64 noundef %22, i32 noundef 1, i64 noundef %27)
  store i64 %28, ptr %6, align 8, !tbaa !14
  %29 = load i64, ptr %6, align 8, !tbaa !14
  %30 = call zeroext i1 @RB_TEST(i64 noundef %29) #32
  br i1 %30, label %31, label %35

31:                                               ; preds = %1
  %32 = load i64, ptr @autoload_mutex, align 8, !tbaa !14
  %33 = load i64, ptr %3, align 8, !tbaa !14
  %34 = call i64 @rb_mutex_synchronize(i64 noundef %32, ptr noundef @autoload_apply_constants, i64 noundef %33)
  store i64 %34, ptr %2, align 8
  store i32 1, ptr %8, align 4
  br label %37

35:                                               ; preds = %1
  %36 = load i64, ptr %6, align 8, !tbaa !14
  store i64 %36, ptr %2, align 8
  store i32 1, ptr %8, align 4
  br label %37

37:                                               ; preds = %35, %31
  call void @llvm.lifetime.end.p0(i64 8, ptr %6) #30
  call void @llvm.lifetime.end.p0(i64 8, ptr %5) #30
  call void @llvm.lifetime.end.p0(i64 8, ptr %4) #30
  %38 = load i64, ptr %2, align 8
  ret i64 %38
}

; Function Attrs: nounwind sspstrong uwtable
define internal i64 @autoload_try_load(i64 noundef %0) #0 {
  %2 = alloca i64, align 8
  %3 = alloca ptr, align 8
  %4 = alloca i64, align 8
  %5 = alloca ptr, align 8
  %6 = alloca i64, align 8
  %7 = alloca i64, align 8
  store i64 %0, ptr %2, align 8, !tbaa !14
  call void @llvm.lifetime.start.p0(i64 8, ptr %3) #30
  %8 = load i64, ptr %2, align 8, !tbaa !14
  %9 = inttoptr i64 %8 to ptr
  store ptr %9, ptr %3, align 8, !tbaa !164
  call void @llvm.lifetime.start.p0(i64 8, ptr %4) #30
  %10 = load i64, ptr %2, align 8, !tbaa !14
  %11 = call i64 @autoload_feature_require(i64 noundef %10)
  store i64 %11, ptr %4, align 8, !tbaa !14
  call void @llvm.lifetime.start.p0(i64 8, ptr %5) #30
  %12 = load ptr, ptr %3, align 8, !tbaa !164
  %13 = getelementptr inbounds nuw %struct.autoload_load_arguments, ptr %12, i32 0, i32 0
  %14 = load i64, ptr %13, align 8, !tbaa !154
  %15 = load ptr, ptr %3, align 8, !tbaa !164
  %16 = getelementptr inbounds nuw %struct.autoload_load_arguments, ptr %15, i32 0, i32 1
  %17 = load i64, ptr %16, align 8, !tbaa !156
  %18 = call ptr @rb_const_lookup(i64 noundef %14, i64 noundef %17)
  store ptr %18, ptr %5, align 8, !tbaa !138
  %19 = load ptr, ptr %5, align 8, !tbaa !138
  %20 = icmp ne ptr %19, null
  br i1 %20, label %21, label %26

21:                                               ; preds = %1
  %22 = load ptr, ptr %5, align 8, !tbaa !138
  %23 = getelementptr inbounds nuw %struct.rb_const_entry_struct, ptr %22, i32 0, i32 2
  %24 = load i64, ptr %23, align 8, !tbaa !140
  %25 = call zeroext i1 @RB_UNDEF_P(i64 noundef %24) #32
  br i1 %25, label %26, label %113

26:                                               ; preds = %21, %1
  store i64 0, ptr %4, align 8, !tbaa !14
  %27 = load ptr, ptr %3, align 8, !tbaa !164
  %28 = getelementptr inbounds nuw %struct.autoload_load_arguments, ptr %27, i32 0, i32 0
  %29 = load i64, ptr %28, align 8, !tbaa !154
  %30 = load ptr, ptr %3, align 8, !tbaa !164
  %31 = getelementptr inbounds nuw %struct.autoload_load_arguments, ptr %30, i32 0, i32 1
  %32 = load i64, ptr %31, align 8, !tbaa !156
  %33 = call i64 @rb_const_remove(i64 noundef %29, i64 noundef %32)
  %34 = load ptr, ptr %3, align 8, !tbaa !164
  %35 = getelementptr inbounds nuw %struct.autoload_load_arguments, ptr %34, i32 0, i32 0
  %36 = load i64, ptr %35, align 8, !tbaa !154
  %37 = load i64, ptr @rb_cObject, align 8, !tbaa !14
  %38 = icmp eq i64 %36, %37
  br i1 %38, label %39, label %74

39:                                               ; preds = %26
  %40 = load ptr, ptr %3, align 8, !tbaa !164
  %41 = getelementptr inbounds nuw %struct.autoload_load_arguments, ptr %40, i32 0, i32 5
  %42 = load ptr, ptr %41, align 8, !tbaa !160
  %43 = getelementptr inbounds nuw %struct.autoload_data, ptr %42, i32 0, i32 0
  %44 = load i64, ptr %43, align 8, !tbaa !185
  %45 = load ptr, ptr %3, align 8, !tbaa !164
  %46 = getelementptr inbounds nuw %struct.autoload_load_arguments, ptr %45, i32 0, i32 1
  %47 = load i64, ptr %46, align 8, !tbaa !156
  %48 = call i1 @llvm.is.constant.i64(i64 %47)
  br i1 %48, label %49, label %66

49:                                               ; preds = %39
  %50 = load ptr, ptr %3, align 8, !tbaa !164
  %51 = getelementptr inbounds nuw %struct.autoload_load_arguments, ptr %50, i32 0, i32 1
  %52 = load i64, ptr %51, align 8, !tbaa !156
  %53 = and i64 %52, 1
  %54 = icmp ne i64 %53, 0
  br i1 %54, label %60, label %55

55:                                               ; preds = %49
  %56 = load ptr, ptr %3, align 8, !tbaa !164
  %57 = getelementptr inbounds nuw %struct.autoload_load_arguments, ptr %56, i32 0, i32 1
  %58 = load i64, ptr %57, align 8, !tbaa !156
  %59 = icmp ugt i64 %58, 170
  br i1 %59, label %66, label %60

60:                                               ; preds = %55, %49
  %61 = load ptr, ptr %3, align 8, !tbaa !164
  %62 = getelementptr inbounds nuw %struct.autoload_load_arguments, ptr %61, i32 0, i32 1
  %63 = load i64, ptr %62, align 8, !tbaa !156
  %64 = shl i64 %63, 8
  %65 = or i64 %64, 12
  br label %71

66:                                               ; preds = %55, %39
  %67 = load ptr, ptr %3, align 8, !tbaa !164
  %68 = getelementptr inbounds nuw %struct.autoload_load_arguments, ptr %67, i32 0, i32 1
  %69 = load i64, ptr %68, align 8, !tbaa !156
  %70 = call i64 @rb_id2sym(i64 noundef %69)
  br label %71

71:                                               ; preds = %66, %60
  %72 = phi i64 [ %65, %60 ], [ %70, %66 ]
  store i64 %72, ptr %6, align 8, !tbaa !14
  %73 = load i64, ptr %6, align 8, !tbaa !14
  call void (ptr, ...) @rb_warning(ptr noundef @.str.54, i64 noundef %44, i64 noundef %73)
  br label %112

74:                                               ; preds = %26
  %75 = load ptr, ptr %3, align 8, !tbaa !164
  %76 = getelementptr inbounds nuw %struct.autoload_load_arguments, ptr %75, i32 0, i32 5
  %77 = load ptr, ptr %76, align 8, !tbaa !160
  %78 = getelementptr inbounds nuw %struct.autoload_data, ptr %77, i32 0, i32 0
  %79 = load i64, ptr %78, align 8, !tbaa !185
  %80 = load ptr, ptr %3, align 8, !tbaa !164
  %81 = getelementptr inbounds nuw %struct.autoload_load_arguments, ptr %80, i32 0, i32 0
  %82 = load i64, ptr %81, align 8, !tbaa !154
  %83 = load ptr, ptr %3, align 8, !tbaa !164
  %84 = getelementptr inbounds nuw %struct.autoload_load_arguments, ptr %83, i32 0, i32 1
  %85 = load i64, ptr %84, align 8, !tbaa !156
  %86 = call i1 @llvm.is.constant.i64(i64 %85)
  br i1 %86, label %87, label %104

87:                                               ; preds = %74
  %88 = load ptr, ptr %3, align 8, !tbaa !164
  %89 = getelementptr inbounds nuw %struct.autoload_load_arguments, ptr %88, i32 0, i32 1
  %90 = load i64, ptr %89, align 8, !tbaa !156
  %91 = and i64 %90, 1
  %92 = icmp ne i64 %91, 0
  br i1 %92, label %98, label %93

93:                                               ; preds = %87
  %94 = load ptr, ptr %3, align 8, !tbaa !164
  %95 = getelementptr inbounds nuw %struct.autoload_load_arguments, ptr %94, i32 0, i32 1
  %96 = load i64, ptr %95, align 8, !tbaa !156
  %97 = icmp ugt i64 %96, 170
  br i1 %97, label %104, label %98

98:                                               ; preds = %93, %87
  %99 = load ptr, ptr %3, align 8, !tbaa !164
  %100 = getelementptr inbounds nuw %struct.autoload_load_arguments, ptr %99, i32 0, i32 1
  %101 = load i64, ptr %100, align 8, !tbaa !156
  %102 = shl i64 %101, 8
  %103 = or i64 %102, 12
  br label %109

104:                                              ; preds = %93, %74
  %105 = load ptr, ptr %3, align 8, !tbaa !164
  %106 = getelementptr inbounds nuw %struct.autoload_load_arguments, ptr %105, i32 0, i32 1
  %107 = load i64, ptr %106, align 8, !tbaa !156
  %108 = call i64 @rb_id2sym(i64 noundef %107)
  br label %109

109:                                              ; preds = %104, %98
  %110 = phi i64 [ %103, %98 ], [ %108, %104 ]
  store i64 %110, ptr %7, align 8, !tbaa !14
  %111 = load i64, ptr %7, align 8, !tbaa !14
  call void (ptr, ...) @rb_warning(ptr noundef @.str.55, i64 noundef %79, i64 noundef %82, i64 noundef %111)
  br label %112

112:                                              ; preds = %109, %71
  br label %121

113:                                              ; preds = %21
  %114 = load ptr, ptr %3, align 8, !tbaa !164
  %115 = getelementptr inbounds nuw %struct.autoload_load_arguments, ptr %114, i32 0, i32 2
  %116 = load i32, ptr %115, align 8, !tbaa !157
  %117 = load ptr, ptr %5, align 8, !tbaa !138
  %118 = getelementptr inbounds nuw %struct.rb_const_entry_struct, ptr %117, i32 0, i32 0
  %119 = load i32, ptr %118, align 8, !tbaa !161
  %120 = or i32 %119, %116
  store i32 %120, ptr %118, align 8, !tbaa !161
  br label %121

121:                                              ; preds = %113, %112
  %122 = load i64, ptr %4, align 8, !tbaa !14
  call void @llvm.lifetime.end.p0(i64 8, ptr %5) #30
  call void @llvm.lifetime.end.p0(i64 8, ptr %4) #30
  call void @llvm.lifetime.end.p0(i64 8, ptr %3) #30
  ret i64 %122
}