; Function Attrs: nounwind sspstrong uwtable
define internal i64 @autoload_try_load(i64 noundef %0) #0 {
  %2 = alloca i64, align 8
  %3 = alloca i32, align 4
  %4 = inttoptr i64 %0 to ptr
  %5 = getelementptr inbounds nuw i8, ptr %4, i64 32
  %6 = load ptr, ptr %5, align 8, !tbaa !190
  %7 = getelementptr inbounds nuw i8, ptr %6, i64 16
  %8 = load i64, ptr %7, align 8, !tbaa !159
  %9 = tail call ptr @rb_check_typeddata(i64 noundef %8, ptr noundef nonnull @autoload_data_type) #27
  %10 = getelementptr inbounds nuw i8, ptr %4, i64 40
  store ptr %9, ptr %10, align 8, !tbaa !191
  %11 = tail call i64 @rb_vm_top_self() #29
  %.pr.i.i = load i64, ptr @autoload_feature_require.rbimpl_id, align 8, !tbaa !14
  %.not1.i.i = icmp eq i64 %.pr.i.i, 0
  br i1 %.not1.i.i, label %.lr.ph.i.i, label %rbimpl_intern_const.exit.i

.lr.ph.i.i:                                       ; preds = %1, %.lr.ph.i.i
  %12 = tail call i64 @rb_intern2(ptr noundef nonnull @.str.56, i64 noundef 7) #27
  store i64 %12, ptr @autoload_feature_require.rbimpl_id, align 8, !tbaa !14
  %.not.i.i = icmp eq i64 %12, 0
  br i1 %.not.i.i, label %.lr.ph.i.i, label %rbimpl_intern_const.exit.loopexit.i, !llvm.loop !192

rbimpl_intern_const.exit.loopexit.i:              ; preds = %.lr.ph.i.i
  %.pre.i = load ptr, ptr %10, align 8, !tbaa !191
  br label %rbimpl_intern_const.exit.i

rbimpl_intern_const.exit.i:                       ; preds = %rbimpl_intern_const.exit.loopexit.i, %1
  %13 = phi ptr [ %9, %1 ], [ %.pre.i, %rbimpl_intern_const.exit.loopexit.i ]
  %.lcssa.i.i = phi i64 [ %.pr.i.i, %1 ], [ %12, %rbimpl_intern_const.exit.loopexit.i ]
  %14 = load i64, ptr %13, align 8, !tbaa !193
  %15 = tail call i64 (i64, i64, i32, ...) @rb_funcall(i64 noundef %11, i64 noundef %.lcssa.i.i, i32 noundef 1, i64 noundef %14) #27
  %16 = and i64 %15, -5
  %.not.i = icmp eq i64 %16, 0
  br i1 %.not.i, label %autoload_feature_require.exit, label %17

17:                                               ; preds = %rbimpl_intern_const.exit.i
  %18 = load i64, ptr @autoload_mutex, align 8, !tbaa !14
  %19 = tail call i64 @rb_mutex_synchronize(i64 noundef %18, ptr noundef nonnull @autoload_apply_constants, i64 noundef %0) #27
  br label %autoload_feature_require.exit

autoload_feature_require.exit:                    ; preds = %rbimpl_intern_const.exit.i, %17
  %.0.i = phi i64 [ %19, %17 ], [ %15, %rbimpl_intern_const.exit.i ]
  %20 = load i64, ptr %4, align 8, !tbaa !180
  %21 = getelementptr inbounds nuw i8, ptr %4, i64 8
  %22 = load i64, ptr %21, align 8, !tbaa !184
  %23 = inttoptr i64 %20 to ptr
  %24 = getelementptr inbounds nuw i8, ptr %23, i64 40
  %25 = load ptr, ptr %24, align 8, !tbaa !142
  %.not.i31 = icmp eq ptr %25, null
  br i1 %.not.i31, label %rb_const_lookup.exit.thread, label %26

26:                                               ; preds = %autoload_feature_require.exit
  call void @llvm.lifetime.start.p0(i64 8, ptr nonnull %2) #27
  call void @llvm.lifetime.start.p0(i64 4, ptr nonnull %3) #27
  %27 = load ptr, ptr @ruby_single_main_ractor, align 8, !tbaa !68
  %.not.i.i.i = icmp eq ptr %27, null
  br i1 %.not.i.i.i, label %28, label %rb_vm_lock_enter.exit.i

28:                                               ; preds = %26
  call void @rb_vm_lock_enter_body(ptr noundef nonnull %3) #27
  br label %rb_vm_lock_enter.exit.i

rb_vm_lock_enter.exit.i:                          ; preds = %28, %26
  %29 = call i32 @rb_id_table_lookup(ptr noundef nonnull %25, i64 noundef %22, ptr noundef nonnull %2) #27
  %.not8.i = icmp eq i32 %29, 0
  %30 = load ptr, ptr @ruby_single_main_ractor, align 8, !tbaa !68
  %.not.i.i9.i = icmp eq ptr %30, null
  br i1 %.not.i.i9.i, label %31, label %rb_vm_lock_leave.exit.i

31:                                               ; preds = %rb_vm_lock_enter.exit.i
  call void @rb_vm_lock_leave_body(ptr noundef nonnull %3) #27
  br label %rb_vm_lock_leave.exit.i

rb_vm_lock_leave.exit.i:                          ; preds = %31, %rb_vm_lock_enter.exit.i
  call void @llvm.lifetime.end.p0(i64 4, ptr nonnull %3) #27
  %32 = load i64, ptr %2, align 8
  %33 = inttoptr i64 %32 to ptr
  call void @llvm.lifetime.end.p0(i64 8, ptr nonnull %2) #27
  %.not = icmp eq i64 %32, 0
  %or.cond34 = select i1 %.not8.i, i1 true, i1 %.not
  br i1 %or.cond34, label %rb_const_lookup.exit.thread, label %34

34:                                               ; preds = %rb_vm_lock_leave.exit.i
  %35 = getelementptr inbounds nuw i8, ptr %33, i64 8
  %36 = load i64, ptr %35, align 8, !tbaa !143
  %37 = icmp eq i64 %36, 36
  br i1 %37, label %rb_const_lookup.exit.thread, label %50

rb_const_lookup.exit.thread:                      ; preds = %rb_vm_lock_leave.exit.i, %autoload_feature_require.exit, %34
  %38 = load i64, ptr %4, align 8, !tbaa !180
  %39 = load i64, ptr %21, align 8, !tbaa !184
  %40 = call i64 @rb_const_remove(i64 noundef %38, i64 noundef %39)
  %41 = load i64, ptr %4, align 8, !tbaa !180
  %42 = load i64, ptr @rb_cObject, align 8, !tbaa !14
  %43 = icmp eq i64 %41, %42
  %44 = load ptr, ptr %10, align 8, !tbaa !191
  %45 = load i64, ptr %44, align 8, !tbaa !193
  %46 = load i64, ptr %21, align 8, !tbaa !184
  %47 = call i64 @rb_id2sym(i64 noundef %46) #27
  br i1 %43, label %48, label %49

48:                                               ; preds = %rb_const_lookup.exit.thread
  call void (ptr, ...) @rb_warning(ptr noundef nonnull @.str.54, i64 noundef %45, i64 noundef %47) #27
  br label %55

49:                                               ; preds = %rb_const_lookup.exit.thread
  call void (ptr, ...) @rb_warning(ptr noundef nonnull @.str.55, i64 noundef %45, i64 noundef %41, i64 noundef %47) #27
  br label %55

50:                                               ; preds = %34
  %51 = getelementptr inbounds nuw i8, ptr %4, i64 16
  %52 = load i32, ptr %51, align 8, !tbaa !185
  %53 = load i32, ptr %33, align 8, !tbaa !187
  %54 = or i32 %53, %52
  store i32 %54, ptr %33, align 8, !tbaa !187
  br label %55

55:                                               ; preds = %48, %49, %50
  %.0 = phi i64 [ 0, %48 ], [ 0, %49 ], [ %.0.i, %50 ]
  ret i64 %.0
}